; Function Attrs: mustprogress uwtable
define hidden noundef i32 @_ZN4ncnn14MatMul_x86_fma15create_pipelineERKNS_6OptionE(ptr noundef nonnull align 8 captures(none) dereferenceable(224) initializes((216, 224)) %0, ptr noundef nonnull align 8 dereferenceable(64) %1) unnamed_addr #3 align 2 personality ptr @__gxx_personality_v0 {
  %3 = alloca %"class.ncnn::ParamDict", align 8
  %4 = alloca %"class.ncnn::ModelBinFromMatArray", align 8
  %5 = tail call noundef ptr @_ZN4ncnn16create_layer_cpuEi(i32 noundef 74)
  %6 = getelementptr inbounds nuw i8, ptr %0, i64 216
  store ptr %5, ptr %6, align 8, !tbaa !4
  call void @llvm.lifetime.start.p0(i64 16, ptr nonnull %3) #15
  call void @_ZN4ncnn9ParamDictC1Ev(ptr noundef nonnull align 8 dereferenceable(16) %3)
  invoke void @_ZN4ncnn9ParamDict3setEii(ptr noundef nonnull align 8 dereferenceable(16) %3, i32 noundef 2, i32 noundef 0)
          to label %7 unwind label %39

7:                                                ; preds = %2
  %8 = getelementptr inbounds nuw i8, ptr %0, i64 208
  %9 = load i32, ptr %8, align 8, !tbaa !28
  invoke void @_ZN4ncnn9ParamDict3setEii(ptr noundef nonnull align 8 dereferenceable(16) %3, i32 noundef 3, i32 noundef %9)
          to label %10 unwind label %39

10:                                               ; preds = %7
  invoke void @_ZN4ncnn9ParamDict3setEii(ptr noundef nonnull align 8 dereferenceable(16) %3, i32 noundef 4, i32 noundef 0)
          to label %11 unwind label %39

11:                                               ; preds = %10
  invoke void @_ZN4ncnn9ParamDict3setEii(ptr noundef nonnull align 8 dereferenceable(16) %3, i32 noundef 5, i32 noundef 0)
          to label %12 unwind label %39

12:                                               ; preds = %11
  invoke void @_ZN4ncnn9ParamDict3setEii(ptr noundef nonnull align 8 dereferenceable(16) %3, i32 noundef 6, i32 noundef 1)
          to label %13 unwind label %39

13:                                               ; preds = %12
  invoke void @_ZN4ncnn9ParamDict3setEii(ptr noundef nonnull align 8 dereferenceable(16) %3, i32 noundef 7, i32 noundef 0)
          to label %14 unwind label %39

14:                                               ; preds = %13
  invoke void @_ZN4ncnn9ParamDict3setEii(ptr noundef nonnull align 8 dereferenceable(16) %3, i32 noundef 8, i32 noundef 0)
          to label %15 unwind label %39

15:                                               ; preds = %14
  invoke void @_ZN4ncnn9ParamDict3setEii(ptr noundef nonnull align 8 dereferenceable(16) %3, i32 noundef 9, i32 noundef 0)
          to label %16 unwind label %39

16:                                               ; preds = %15
  invoke void @_ZN4ncnn9ParamDict3setEii(ptr noundef nonnull align 8 dereferenceable(16) %3, i32 noundef 10, i32 noundef -1)
          to label %17 unwind label %39

17:                                               ; preds = %16
  invoke void @_ZN4ncnn9ParamDict3setEii(ptr noundef nonnull align 8 dereferenceable(16) %3, i32 noundef 11, i32 noundef 0)
          to label %18 unwind label %39

18:                                               ; preds = %17
  invoke void @_ZN4ncnn9ParamDict3setEii(ptr noundef nonnull align 8 dereferenceable(16) %3, i32 noundef 12, i32 noundef 1)
          to label %19 unwind label %39

19:                                               ; preds = %18
  %20 = load ptr, ptr %6, align 8, !tbaa !4
  %21 = load ptr, ptr %20, align 8, !tbaa !29
  %22 = getelementptr inbounds nuw i8, ptr %21, i64 16
  %23 = load ptr, ptr %22, align 8
  %24 = invoke noundef i32 %23(ptr noundef nonnull align 8 dereferenceable(208) %20, ptr noundef nonnull align 8 dereferenceable(16) %3)
          to label %25 unwind label %39

25:                                               ; preds = %19
  %26 = load ptr, ptr %6, align 8, !tbaa !4
  call void @llvm.lifetime.start.p0(i64 16, ptr nonnull %4) #15
  invoke void @_ZN4ncnn20ModelBinFromMatArrayC1EPKNS_3MatE(ptr noundef nonnull align 8 dereferenceable(16) %4, ptr noundef null)
          to label %27 unwind label %41

27:                                               ; preds = %25
  %28 = load ptr, ptr %26, align 8, !tbaa !29
  %29 = getelementptr inbounds nuw i8, ptr %28, i64 24
  %30 = load ptr, ptr %29, align 8
  %31 = invoke noundef i32 %30(ptr noundef nonnull align 8 dereferenceable(208) %26, ptr noundef nonnull align 8 dereferenceable(8) %4)
          to label %32 unwind label %43

32:                                               ; preds = %27
  call void @_ZN4ncnn20ModelBinFromMatArrayD1Ev(ptr noundef nonnull align 8 dereferenceable(16) %4) #15
  call void @llvm.lifetime.end.p0(i64 16, ptr nonnull %4) #15
  %33 = load ptr, ptr %6, align 8, !tbaa !4
  %34 = load ptr, ptr %33, align 8, !tbaa !29
  %35 = getelementptr inbounds nuw i8, ptr %34, i64 32
  %36 = load ptr, ptr %35, align 8
  %37 = invoke noundef i32 %36(ptr noundef nonnull align 8 dereferenceable(208) %33, ptr noundef nonnull align 8 dereferenceable(64) %1)
          to label %38 unwind label %39

38:                                               ; preds = %32
  call void @_ZN4ncnn9ParamDictD1Ev(ptr noundef nonnull align 8 dereferenceable(16) %3) #15
  call void @llvm.lifetime.end.p0(i64 16, ptr nonnull %3) #15
  ret i32 0

39:                                               ; preds = %32, %19, %18, %17, %16, %15, %14, %13, %12, %11, %10, %7, %2
  %40 = landingpad { ptr, i32 }
          cleanup
  br label %46

41:                                               ; preds = %25
  %42 = landingpad { ptr, i32 }
          cleanup
  br label %45

43:                                               ; preds = %27
  %44 = landingpad { ptr, i32 }
          cleanup
  call void @_ZN4ncnn20ModelBinFromMatArrayD1Ev(ptr noundef nonnull align 8 dereferenceable(16) %4) #15
  br label %45

45:                                               ; preds = %43, %41
  %.pn = phi { ptr, i32 } [ %44, %43 ], [ %42, %41 ]
  call void @llvm.lifetime.end.p0(i64 16, ptr nonnull %4) #15
  br label %46

46:                                               ; preds = %45, %39
  %.pn6 = phi { ptr, i32 } [ %40, %39 ], [ %.pn, %45 ]
  call void @_ZN4ncnn9ParamDictD1Ev(ptr noundef nonnull align 8 dereferenceable(16) %3) #15
  call void @llvm.lifetime.end.p0(i64 16, ptr nonnull %3) #15
  resume { ptr, i32 } %.pn6
}